; ModuleID = '46/1761.c'
source_filename = "46/1761.c"
target datalayout = "e-m:e-p270:32:32-p271:32:32-p272:64:64-i64:64-f80:128-n8:16:32:64-S128"
target triple = "x86_64-pc-linux-gnu"

@.str = private unnamed_addr constant [5 x i8] c"%d%d\00", align 1
@.str.1 = private unnamed_addr constant [3 x i8] c"%d\00", align 1
@.str.2 = private unnamed_addr constant [4 x i8] c"%d\0A\00", align 1

; Function Attrs: noinline nounwind uwtable
define dso_local i32 @main() #0 {
  %1 = alloca i32, align 4
  %2 = alloca i32, align 4
  %3 = alloca i32, align 4
  %4 = alloca i32, align 4
  %5 = alloca i32, align 4
  %6 = alloca i32, align 4
  %7 = alloca i32, align 4
  %8 = alloca [100 x [100 x i32]], align 16
  %9 = alloca i32, align 4
  %10 = alloca i32, align 4
  %11 = alloca i32, align 4
  store i32 0, i32* %1, align 4
  store i32 0, i32* %9, align 4
  store i32 0, i32* %10, align 4
  store i32 1, i32* %11, align 4
  %12 = call i32 (i8*, ...) @__isoc99_scanf(i8* getelementptr inbounds ([5 x i8], [5 x i8]* @.str, i64 0, i64 0), i32* %6, i32* %7)
  store i32 0, i32* %2, align 4
  br label %13

13:                                               ; preds = %34, %0
  %14 = load i32, i32* %2, align 4
  %15 = load i32, i32* %6, align 4
  %16 = icmp slt i32 %14, %15
  br i1 %16, label %17, label %37

17:                                               ; preds = %13
  store i32 0, i32* %3, align 4
  br label %18

18:                                               ; preds = %30, %17
  %19 = load i32, i32* %3, align 4
  %20 = load i32, i32* %7, align 4
  %21 = icmp slt i32 %19, %20
  br i1 %21, label %22, label %33

22:                                               ; preds = %18
  %23 = load i32, i32* %2, align 4
  %24 = sext i32 %23 to i64
  %25 = getelementptr inbounds [100 x [100 x i32]], [100 x [100 x i32]]* %8, i64 0, i64 %24
  %26 = load i32, i32* %3, align 4
  %27 = sext i32 %26 to i64
  %28 = getelementptr inbounds [100 x i32], [100 x i32]* %25, i64 0, i64 %27
  %29 = call i32 (i8*, ...) @__isoc99_scanf(i8* getelementptr inbounds ([3 x i8], [3 x i8]* @.str.1, i64 0, i64 0), i32* %28)
  br label %30

30:                                               ; preds = %22
  %31 = load i32, i32* %3, align 4
  %32 = add nsw i32 %31, 1
  store i32 %32, i32* %3, align 4
  br label %18

33:                                               ; preds = %18
  br label %34

34:                                               ; preds = %33
  %35 = load i32, i32* %2, align 4
  %36 = add nsw i32 %35, 1
  store i32 %36, i32* %2, align 4
  br label %13

37:                                               ; preds = %13
  store i32 0, i32* %2, align 4
  br label %38

38:                                               ; preds = %165, %37
  %39 = load i32, i32* %10, align 4
  store i32 %39, i32* %3, align 4
  br label %40

40:                                               ; preds = %57, %38
  %41 = load i32, i32* %3, align 4
  %42 = load i32, i32* %7, align 4
  %43 = load i32, i32* %2, align 4
  %44 = sub nsw i32 %42, %43
  %45 = icmp slt i32 %41, %44
  br i1 %45, label %46, label %60

46:                                               ; preds = %40
  %47 = load i32, i32* %2, align 4
  %48 = sext i32 %47 to i64
  %49 = getelementptr inbounds [100 x [100 x i32]], [100 x [100 x i32]]* %8, i64 0, i64 %48
  %50 = load i32, i32* %3, align 4
  %51 = sext i32 %50 to i64
  %52 = getelementptr inbounds [100 x i32], [100 x i32]* %49, i64 0, i64 %51
  %53 = load i32, i32* %52, align 4
  %54 = call i32 (i8*, ...) @printf(i8* getelementptr inbounds ([4 x i8], [4 x i8]* @.str.2, i64 0, i64 0), i32 %53)
  %55 = load i32, i32* %9, align 4
  %56 = add nsw i32 %55, 1
  store i32 %56, i32* %9, align 4
  br label %57

57:                                               ; preds = %46
  %58 = load i32, i32* %3, align 4
  %59 = add nsw i32 %58, 1
  store i32 %59, i32* %3, align 4
  br label %40

60:                                               ; preds = %40
  %61 = load i32, i32* %10, align 4
  %62 = add nsw i32 %61, 1
  store i32 %62, i32* %10, align 4
  %63 = load i32, i32* %9, align 4
  %64 = load i32, i32* %6, align 4
  %65 = load i32, i32* %7, align 4
  %66 = mul nsw i32 %64, %65
  %67 = icmp eq i32 %63, %66
  br i1 %67, label %68, label %69

68:                                               ; preds = %60
  br label %168

69:                                               ; preds = %60
  %70 = load i32, i32* %11, align 4
  store i32 %70, i32* %3, align 4
  br label %71

71:                                               ; preds = %92, %69
  %72 = load i32, i32* %3, align 4
  %73 = load i32, i32* %6, align 4
  %74 = load i32, i32* %2, align 4
  %75 = sub nsw i32 %73, %74
  %76 = icmp slt i32 %72, %75
  br i1 %76, label %77, label %95

77:                                               ; preds = %71
  %78 = load i32, i32* %7, align 4
  %79 = sub nsw i32 %78, 1
  %80 = load i32, i32* %2, align 4
  %81 = sub nsw i32 %79, %80
  store i32 %81, i32* %4, align 4
  %82 = load i32, i32* %3, align 4
  %83 = sext i32 %82 to i64
  %84 = getelementptr inbounds [100 x [100 x i32]], [100 x [100 x i32]]* %8, i64 0, i64 %83
  %85 = load i32, i32* %4, align 4
  %86 = sext i32 %85 to i64
  %87 = getelementptr inbounds [100 x i32], [100 x i32]* %84, i64 0, i64 %86
  %88 = load i32, i32* %87, align 4
  %89 = call i32 (i8*, ...) @printf(i8* getelementptr inbounds ([4 x i8], [4 x i8]* @.str.2, i64 0, i64 0), i32 %88)
  %90 = load i32, i32* %9, align 4
  %91 = add nsw i32 %90, 1
  store i32 %91, i32* %9, align 4
  br label %92

92:                                               ; preds = %77
  %93 = load i32, i32* %3, align 4
  %94 = add nsw i32 %93, 1
  store i32 %94, i32* %3, align 4
  br label %71

95:                                               ; preds = %71
  %96 = load i32, i32* %11, align 4
  %97 = add nsw i32 %96, 1
  store i32 %97, i32* %11, align 4
  %98 = load i32, i32* %9, align 4
  %99 = load i32, i32* %6, align 4
  %100 = load i32, i32* %7, align 4
  %101 = mul nsw i32 %99, %100
  %102 = icmp eq i32 %98, %101
  br i1 %102, label %103, label %104

103:                                              ; preds = %95
  br label %168

104:                                              ; preds = %95
  %105 = load i32, i32* %4, align 4
  %106 = sub nsw i32 %105, 1
  store i32 %106, i32* %3, align 4
  br label %107

107:                                              ; preds = %126, %104
  %108 = load i32, i32* %3, align 4
  %109 = load i32, i32* %2, align 4
  %110 = icmp sge i32 %108, %109
  br i1 %110, label %111, label %129

111:                                              ; preds = %107
  %112 = load i32, i32* %6, align 4
  %113 = sub nsw i32 %112, 1
  %114 = load i32, i32* %2, align 4
  %115 = sub nsw i32 %113, %114
  store i32 %115, i32* %5, align 4
  %116 = load i32, i32* %5, align 4
  %117 = sext i32 %116 to i64
  %118 = getelementptr inbounds [100 x [100 x i32]], [100 x [100 x i32]]* %8, i64 0, i64 %117
  %119 = load i32, i32* %3, align 4
  %120 = sext i32 %119 to i64
  %121 = getelementptr inbounds [100 x i32], [100 x i32]* %118, i64 0, i64 %120
  %122 = load i32, i32* %121, align 4
  %123 = call i32 (i8*, ...) @printf(i8* getelementptr inbounds ([4 x i8], [4 x i8]* @.str.2, i64 0, i64 0), i32 %122)
  %124 = load i32, i32* %9, align 4
  %125 = add nsw i32 %124, 1
  store i32 %125, i32* %9, align 4
  br label %126

126:                                              ; preds = %111
  %127 = load i32, i32* %3, align 4
  %128 = add nsw i32 %127, -1
  store i32 %128, i32* %3, align 4
  br label %107

129:                                              ; preds = %107
  %130 = load i32, i32* %9, align 4
  %131 = load i32, i32* %6, align 4
  %132 = load i32, i32* %7, align 4
  %133 = mul nsw i32 %131, %132
  %134 = icmp eq i32 %130, %133
  br i1 %134, label %135, label %136

135:                                              ; preds = %129
  br label %168

136:                                              ; preds = %129
  %137 = load i32, i32* %5, align 4
  %138 = sub nsw i32 %137, 1
  store i32 %138, i32* %3, align 4
  br label %139

139:                                              ; preds = %154, %136
  %140 = load i32, i32* %3, align 4
  %141 = load i32, i32* %2, align 4
  %142 = icmp sgt i32 %140, %141
  br i1 %142, label %143, label %157

143:                                              ; preds = %139
  %144 = load i32, i32* %3, align 4
  %145 = sext i32 %144 to i64
  %146 = getelementptr inbounds [100 x [100 x i32]], [100 x [100 x i32]]* %8, i64 0, i64 %145
  %147 = load i32, i32* %2, align 4
  %148 = sext i32 %147 to i64
  %149 = getelementptr inbounds [100 x i32], [100 x i32]* %146, i64 0, i64 %148
  %150 = load i32, i32* %149, align 4
  %151 = call i32 (i8*, ...) @printf(i8* getelementptr inbounds ([4 x i8], [4 x i8]* @.str.2, i64 0, i64 0), i32 %150)
  %152 = load i32, i32* %9, align 4
  %153 = add nsw i32 %152, 1
  store i32 %153, i32* %9, align 4
  br label %154

154:                                              ; preds = %143
  %155 = load i32, i32* %3, align 4
  %156 = add nsw i32 %155, -1
  store i32 %156, i32* %3, align 4
  br label %139

157:                                              ; preds = %139
  %158 = load i32, i32* %9, align 4
  %159 = load i32, i32* %6, align 4
  %160 = load i32, i32* %7, align 4
  %161 = mul nsw i32 %159, %160
  %162 = icmp eq i32 %158, %161
  br i1 %162, label %163, label %164

163:                                              ; preds = %157
  br label %168

164:                                              ; preds = %157
  br label %165

165:                                              ; preds = %164
  %166 = load i32, i32* %2, align 4
  %167 = add nsw i32 %166, 1
  store i32 %167, i32* %2, align 4
  br label %38

168:                                              ; preds = %163, %135, %103, %68
  ret i32 0
}

declare dso_local i32 @__isoc99_scanf(i8*, ...) #1

declare dso_local i32 @printf(i8*, ...) #1


!llvm.module.flags = !{!0}
!llvm.ident = !{!1}

!0 = !{i32 1, !"wchar_size", i32 4}
!1 = !{!"clang version 10.0.0-4ubuntu1 "}
